target datalayout = "e-m:e-p270:32:32-p271:32:32-p272:64:64-i64:64-i128:128-f80:128-n8:16:32:64-S128"
target triple = "x86_64-pc-linux-gnu"

%struct.t_trxstatus = type { i32, i32, float, float, ptr, ptr, ptr, i32, ptr }
%"class.std::filesystem::__cxx11::path" = type { %"class.std::__cxx11::basic_string", %"struct.std::filesystem::__cxx11::path::_List" }
%"class.std::__cxx11::basic_string" = type { %"struct.std::__cxx11::basic_string<char>::_Alloc_hider", i64, %union.anon }
%"struct.std::__cxx11::basic_string<char>::_Alloc_hider" = type { ptr }
%union.anon = type { i64, [8 x i8] }
%"struct.std::filesystem::__cxx11::path::_List" = type { %"class.std::unique_ptr" }
%"class.std::unique_ptr" = type { %"struct.std::__uniq_ptr_data" }
%"struct.std::__uniq_ptr_data" = type { %"class.std::__uniq_ptr_impl" }
%"class.std::__uniq_ptr_impl" = type { %"class.std::tuple" }
%"class.std::tuple" = type { %"struct.std::_Tuple_impl" }
%"struct.std::_Tuple_impl" = type { %"struct.std::_Head_base.1" }
%"struct.std::_Head_base.1" = type { ptr }

@.str.2 = private unnamed_addr constant [122 x i8] c"generated/home/dtcxzyw/WorkSpace/Projects/compilers/llvm-opt-benchmark/bench/gromacs/gromacs/src/gromacs/fileio/trxio.cpp\00", align 1
@.str.23 = private unnamed_addr constant [32 x i8] c"Sorry, write_trx can only write\00", align 1
@.str.24 = private unnamed_addr constant [5 x i8] c"stat\00", align 1

; Function Attrs: mustprogress nounwind uwtable
define internal void @_ZL11status_initP11t_trxstatus(ptr noundef %0) #0 {
  %2 = alloca ptr, align 8
  store ptr %0, ptr %2, align 8
  %3 = load ptr, ptr %2, align 8
  %4 = getelementptr inbounds %struct.t_trxstatus, ptr %3, i32 0, i32 0
  store i32 0, ptr %4, align 8
  %5 = load ptr, ptr %2, align 8
  %6 = getelementptr inbounds %struct.t_trxstatus, ptr %5, i32 0, i32 4
  store ptr null, ptr %6, align 8
  %7 = load ptr, ptr %2, align 8
  %8 = getelementptr inbounds %struct.t_trxstatus, ptr %7, i32 0, i32 5
  store ptr null, ptr %8, align 8
  %9 = load ptr, ptr %2, align 8
  %10 = getelementptr inbounds %struct.t_trxstatus, ptr %9, i32 0, i32 1
  store i32 -1, ptr %10, align 4
  %11 = load ptr, ptr %2, align 8
  %12 = getelementptr inbounds %struct.t_trxstatus, ptr %11, i32 0, i32 2
  store float 0.000000e+00, ptr %12, align 8
  %13 = load ptr, ptr %2, align 8
  %14 = getelementptr inbounds %struct.t_trxstatus, ptr %13, i32 0, i32 3
  store float 0.000000e+00, ptr %14, align 4
  %15 = load ptr, ptr %2, align 8
  %16 = getelementptr inbounds %struct.t_trxstatus, ptr %15, i32 0, i32 8
  store ptr null, ptr %16, align 8
  %17 = load ptr, ptr %2, align 8
  %18 = getelementptr inbounds %struct.t_trxstatus, ptr %17, i32 0, i32 6
  store ptr null, ptr %18, align 8
  ret void
}

; Function Attrs: mustprogress uwtable
define internal void @_ZL13gmx_snew_implI11t_trxstatusEvPKcS2_iRPT_m(ptr noundef %0, ptr noundef %1, i32 noundef %2, ptr noundef nonnull align 8 dereferenceable(8) %3, i64 noundef %4) #2 {
  %6 = alloca ptr, align 8
  %7 = alloca ptr, align 8
  %8 = alloca i32, align 4
  %9 = alloca ptr, align 8
  %10 = alloca i64, align 8
  store ptr %0, ptr %6, align 8
  store ptr %1, ptr %7, align 8
  store i32 %2, ptr %8, align 4
  store ptr %3, ptr %9, align 8
  store i64 %4, ptr %10, align 8
  %11 = load ptr, ptr %6, align 8
  %12 = load ptr, ptr %7, align 8
  %13 = load i32, ptr %8, align 4
  %14 = load i64, ptr %10, align 8
  %15 = call noundef ptr @_Z11save_callocPKcS0_imm(ptr noundef %11, ptr noundef %12, i32 noundef %13, i64 noundef %14, i64 noundef 56)
  %16 = load ptr, ptr %9, align 8
  store ptr %15, ptr %16, align 8
  ret void
}

; Function Attrs: mustprogress uwtable
define noundef ptr @_Z8open_trxRKNSt10filesystem7__cxx114pathEPKc(ptr noundef nonnull align 8 dereferenceable(40) %0, ptr noundef %1) #2 personality ptr @__gxx_personality_v0 {
  %3 = alloca ptr, align 8
  %4 = alloca ptr, align 8
  %5 = alloca ptr, align 8
  %6 = alloca %"class.std::filesystem::__cxx11::path", align 8
  %7 = alloca ptr, align 8
  %8 = alloca i32, align 4
  store ptr %0, ptr %3, align 8
  store ptr %1, ptr %4, align 8
  %9 = load ptr, ptr %4, align 8
  %10 = getelementptr inbounds i8, ptr %9, i64 0
  %11 = load i8, ptr %10, align 1
  %12 = sext i8 %11 to i32
  %13 = icmp ne i32 %12, 119
  br i1 %13, label %14, label %32

14:                                               ; preds = %2
  %15 = load ptr, ptr %4, align 8
  %16 = getelementptr inbounds i8, ptr %15, i64 0
  %17 = load i8, ptr %16, align 1
  %18 = sext i8 %17 to i32
  %19 = icmp ne i32 %18, 97
  br i1 %19, label %20, label %32

20:                                               ; preds = %14
  %21 = load ptr, ptr %4, align 8
  %22 = getelementptr inbounds i8, ptr %21, i64 1
  %23 = load i8, ptr %22, align 1
  %24 = sext i8 %23 to i32
  %25 = icmp ne i32 %24, 43
  br i1 %25, label %26, label %32

26:                                               ; preds = %20
  call void @_ZNSt10filesystem7__cxx114pathC2IA122_cS1_EERKT_NS1_6formatE(ptr noundef nonnull align 8 dereferenceable(40) %6, ptr noundef nonnull align 1 dereferenceable(122) @.str.2, i8 noundef zeroext 2)
  invoke void (i32, ptr, i32, ptr, ...) @_Z9gmx_fataliRKNSt10filesystem7__cxx114pathEiPKcz(i32 noundef 0, ptr noundef nonnull align 8 dereferenceable(40) %6, i32 noundef 669, ptr noundef @.str.23) #13
          to label %27 unwind label %28

27:                                               ; preds = %26
  unreachable

28:                                               ; preds = %26
  %29 = landingpad { ptr, i32 }
          cleanup
  %30 = extractvalue { ptr, i32 } %29, 0
  store ptr %30, ptr %7, align 8
  %31 = extractvalue { ptr, i32 } %29, 1
  store i32 %31, ptr %8, align 4
  call void @_ZNSt10filesystem7__cxx114pathD2Ev(ptr noundef nonnull align 8 dereferenceable(40) %6) #12
  br label %40

32:                                               ; preds = %20, %14, %2
  call void @_ZL13gmx_snew_implI11t_trxstatusEvPKcS2_iRPT_m(ptr noundef @.str.24, ptr noundef @.str.2, i32 noundef 672, ptr noundef nonnull align 8 dereferenceable(8) %5, i64 noundef 1)
  %33 = load ptr, ptr %5, align 8
  call void @_ZL11status_initP11t_trxstatus(ptr noundef %33)
  %34 = load ptr, ptr %3, align 8
  %35 = load ptr, ptr %4, align 8
  %36 = call noundef ptr @_Z12gmx_fio_openRKNSt10filesystem7__cxx114pathEPKc(ptr noundef nonnull align 8 dereferenceable(40) %34, ptr noundef %35)
  %37 = load ptr, ptr %5, align 8
  %38 = getelementptr inbounds %struct.t_trxstatus, ptr %37, i32 0, i32 5
  store ptr %36, ptr %38, align 8
  %39 = load ptr, ptr %5, align 8
  ret ptr %39

40:                                               ; preds = %28
  %41 = load ptr, ptr %7, align 8
  %42 = load i32, ptr %8, align 4
  %43 = insertvalue { ptr, i32 } poison, ptr %41, 0
  %44 = insertvalue { ptr, i32 } %43, i32 %42, 1
  resume { ptr, i32 } %44
}