; Function Attrs: mustprogress uwtable
define noundef ptr @_Z8open_trxRKNSt10filesystem7__cxx114pathEPKc(ptr noundef nonnull align 8 dereferenceable(40) %0, ptr noundef %1) local_unnamed_addr #2 personality ptr @__gxx_personality_v0 {
  %3 = alloca %"class.std::filesystem::__cxx11::path", align 8
  %4 = load i8, ptr %1, align 1
  switch i8 %4, label %5 [
    i8 119, label %12
    i8 97, label %12
  ]

5:                                                ; preds = %2
  %6 = getelementptr inbounds i8, ptr %1, i64 1
  %7 = load i8, ptr %6, align 1
  %.not7 = icmp eq i8 %7, 43
  br i1 %.not7, label %12, label %8

8:                                                ; preds = %5
  call void @_ZNSt10filesystem7__cxx114pathC2IA122_cS1_EERKT_NS1_6formatE(ptr noundef nonnull align 8 dereferenceable(40) %3, ptr noundef nonnull align 1 dereferenceable(122) @.str.2, i8 noundef zeroext 2)
  invoke void (i32, ptr, i32, ptr, ...) @_Z9gmx_fataliRKNSt10filesystem7__cxx114pathEiPKcz(i32 noundef 0, ptr noundef nonnull align 8 dereferenceable(40) %3, i32 noundef 669, ptr noundef nonnull @.str.23) #19
          to label %9 unwind label %10

9:                                                ; preds = %8
  unreachable

10:                                               ; preds = %8
  %11 = landingpad { ptr, i32 }
          cleanup
  call void @_ZNSt10filesystem7__cxx114pathD2Ev(ptr noundef nonnull align 8 dereferenceable(40) %3) #18
  resume { ptr, i32 } %11

12:                                               ; preds = %2, %2, %5
  %13 = tail call noundef ptr @_Z11save_callocPKcS0_imm(ptr noundef nonnull @.str.24, ptr noundef nonnull @.str.2, i32 noundef 672, i64 noundef 1, i64 noundef 56)
  store i32 0, ptr %13, align 8
  %14 = getelementptr inbounds i8, ptr %13, i64 16
  %15 = getelementptr inbounds i8, ptr %13, i64 4
  tail call void @llvm.memset.p0.i64(ptr noundef nonnull align 8 dereferenceable(16) %14, i8 0, i64 16, i1 false)
  store i32 -1, ptr %15, align 4
  %16 = getelementptr inbounds i8, ptr %13, i64 8
  store <2 x float> zeroinitializer, ptr %16, align 8
  %17 = getelementptr inbounds i8, ptr %13, i64 48
  store ptr null, ptr %17, align 8
  %18 = getelementptr inbounds i8, ptr %13, i64 32
  store ptr null, ptr %18, align 8
  %19 = tail call noundef ptr @_Z12gmx_fio_openRKNSt10filesystem7__cxx114pathEPKc(ptr noundef nonnull align 8 dereferenceable(40) %0, ptr noundef nonnull %1)
  %20 = getelementptr inbounds i8, ptr %13, i64 24
  store ptr %19, ptr %20, align 8
  ret ptr %13
}